target datalayout = "e-m:e-p270:32:32-p271:32:32-p272:64:64-i64:64-i128:128-f80:128-n8:16:32:64-S128"
target triple = "x86_64-pc-linux-gnu"

%"struct.faiss::BufferList" = type { i64, %"class.std::vector", i64 }
%"class.std::vector" = type { %"struct.std::_Vector_base" }
%"struct.std::_Vector_base" = type { %"struct.std::_Vector_base<faiss::BufferList::Buffer, std::allocator<faiss::BufferList::Buffer>>::_Vector_impl" }
%"struct.std::_Vector_base<faiss::BufferList::Buffer, std::allocator<faiss::BufferList::Buffer>>::_Vector_impl" = type { %"struct.std::_Vector_base<faiss::BufferList::Buffer, std::allocator<faiss::BufferList::Buffer>>::_Vector_impl_data" }
%"struct.std::_Vector_base<faiss::BufferList::Buffer, std::allocator<faiss::BufferList::Buffer>>::_Vector_impl_data" = type { ptr, ptr, ptr }
%"struct.faiss::BufferList::Buffer" = type { ptr, ptr }
%"class.__gnu_cxx::__normal_iterator" = type { ptr }

; Function Attrs: mustprogress nounwind uwtable
define linkonce_odr void @_ZN9__gnu_cxx17__normal_iteratorIPN5faiss10BufferList6BufferESt6vectorIS3_SaIS3_EEEC2ERKS4_(ptr noundef nonnull align 8 dereferenceable(8) %0, ptr noundef nonnull align 8 dereferenceable(8) %1) unnamed_addr #1 comdat align 2 {
  %3 = alloca ptr, align 8
  %4 = alloca ptr, align 8
  store ptr %0, ptr %3, align 8
  store ptr %1, ptr %4, align 8
  %5 = load ptr, ptr %3, align 8
  %6 = getelementptr inbounds %"class.__gnu_cxx::__normal_iterator", ptr %5, i32 0, i32 0
  %7 = load ptr, ptr %4, align 8
  %8 = load ptr, ptr %7, align 8
  store ptr %8, ptr %6, align 8
  ret void
}

; Function Attrs: mustprogress nounwind uwtable
define linkonce_odr noundef nonnull align 8 dereferenceable(16) ptr @_ZNK9__gnu_cxx17__normal_iteratorIPN5faiss10BufferList6BufferESt6vectorIS3_SaIS3_EEEdeEv(ptr noundef nonnull align 8 dereferenceable(8) %0) #1 comdat align 2 {
  %2 = alloca ptr, align 8
  store ptr %0, ptr %2, align 8
  %3 = load ptr, ptr %2, align 8
  %4 = getelementptr inbounds %"class.__gnu_cxx::__normal_iterator", ptr %3, i32 0, i32 0
  %5 = load ptr, ptr %4, align 8
  ret ptr %5
}

; Function Attrs: mustprogress nounwind uwtable
define linkonce_odr ptr @_ZNK9__gnu_cxx17__normal_iteratorIPN5faiss10BufferList6BufferESt6vectorIS3_SaIS3_EEEmiEl(ptr noundef nonnull align 8 dereferenceable(8) %0, i64 noundef %1) #1 comdat align 2 {
  %3 = alloca %"class.__gnu_cxx::__normal_iterator", align 8
  %4 = alloca ptr, align 8
  %5 = alloca i64, align 8
  %6 = alloca ptr, align 8
  store ptr %0, ptr %4, align 8
  store i64 %1, ptr %5, align 8
  %7 = load ptr, ptr %4, align 8
  %8 = getelementptr inbounds %"class.__gnu_cxx::__normal_iterator", ptr %7, i32 0, i32 0
  %9 = load ptr, ptr %8, align 8
  %10 = load i64, ptr %5, align 8
  %11 = sub i64 0, %10
  %12 = getelementptr inbounds %"struct.faiss::BufferList::Buffer", ptr %9, i64 %11
  store ptr %12, ptr %6, align 8
  call void @_ZN9__gnu_cxx17__normal_iteratorIPN5faiss10BufferList6BufferESt6vectorIS3_SaIS3_EEEC2ERKS4_(ptr noundef nonnull align 8 dereferenceable(8) %3, ptr noundef nonnull align 8 dereferenceable(8) %6) #11
  %13 = getelementptr inbounds %"class.__gnu_cxx::__normal_iterator", ptr %3, i32 0, i32 0
  %14 = load ptr, ptr %13, align 8
  ret ptr %14
}

; Function Attrs: mustprogress nounwind uwtable
define linkonce_odr ptr @_ZNSt6vectorIN5faiss10BufferList6BufferESaIS2_EE3endEv(ptr noundef nonnull align 8 dereferenceable(24) %0) #1 comdat align 2 {
  %2 = alloca %"class.__gnu_cxx::__normal_iterator", align 8
  %3 = alloca ptr, align 8
  store ptr %0, ptr %3, align 8
  %4 = load ptr, ptr %3, align 8
  %5 = getelementptr inbounds %"struct.std::_Vector_base", ptr %4, i32 0, i32 0
  %6 = getelementptr inbounds %"struct.std::_Vector_base<faiss::BufferList::Buffer, std::allocator<faiss::BufferList::Buffer>>::_Vector_impl_data", ptr %5, i32 0, i32 1
  call void @_ZN9__gnu_cxx17__normal_iteratorIPN5faiss10BufferList6BufferESt6vectorIS3_SaIS3_EEEC2ERKS4_(ptr noundef nonnull align 8 dereferenceable(8) %2, ptr noundef nonnull align 8 dereferenceable(8) %6) #11
  %7 = getelementptr inbounds %"class.__gnu_cxx::__normal_iterator", ptr %2, i32 0, i32 0
  %8 = load ptr, ptr %7, align 8
  ret ptr %8
}

; Function Attrs: mustprogress nounwind uwtable
define linkonce_odr noundef nonnull align 8 dereferenceable(16) ptr @_ZNSt6vectorIN5faiss10BufferList6BufferESaIS2_EE4backEv(ptr noundef nonnull align 8 dereferenceable(24) %0) #1 comdat align 2 {
  %2 = alloca ptr, align 8
  %3 = alloca %"class.__gnu_cxx::__normal_iterator", align 8
  %4 = alloca %"class.__gnu_cxx::__normal_iterator", align 8
  store ptr %0, ptr %2, align 8
  %5 = load ptr, ptr %2, align 8
  %6 = call ptr @_ZNSt6vectorIN5faiss10BufferList6BufferESaIS2_EE3endEv(ptr noundef nonnull align 8 dereferenceable(24) %5) #11
  %7 = getelementptr inbounds %"class.__gnu_cxx::__normal_iterator", ptr %4, i32 0, i32 0
  store ptr %6, ptr %7, align 8
  %8 = call ptr @_ZNK9__gnu_cxx17__normal_iteratorIPN5faiss10BufferList6BufferESt6vectorIS3_SaIS3_EEEmiEl(ptr noundef nonnull align 8 dereferenceable(8) %4, i64 noundef 1) #11
  %9 = getelementptr inbounds %"class.__gnu_cxx::__normal_iterator", ptr %3, i32 0, i32 0
  store ptr %8, ptr %9, align 8
  %10 = call noundef nonnull align 8 dereferenceable(16) ptr @_ZNK9__gnu_cxx17__normal_iteratorIPN5faiss10BufferList6BufferESt6vectorIS3_SaIS3_EEEdeEv(ptr noundef nonnull align 8 dereferenceable(8) %3) #11
  ret ptr %10
}

; Function Attrs: mustprogress uwtable
define void @_ZN5faiss10BufferList3addElf(ptr noundef nonnull align 8 dereferenceable(40) %0, i64 noundef %1, float noundef %2) #0 align 2 {
  %4 = alloca ptr, align 8
  %5 = alloca i64, align 8
  %6 = alloca float, align 4
  %7 = alloca ptr, align 8
  store ptr %0, ptr %4, align 8
  store i64 %1, ptr %5, align 8
  store float %2, ptr %6, align 4
  %8 = load ptr, ptr %4, align 8
  %9 = getelementptr inbounds %"struct.faiss::BufferList", ptr %8, i32 0, i32 2
  %10 = load i64, ptr %9, align 8
  %11 = getelementptr inbounds %"struct.faiss::BufferList", ptr %8, i32 0, i32 0
  %12 = load i64, ptr %11, align 8
  %13 = icmp eq i64 %10, %12
  br i1 %13, label %14, label %15

14:                                               ; preds = %3
  call void @_ZN5faiss10BufferList13append_bufferEv(ptr noundef nonnull align 8 dereferenceable(40) %8)
  br label %15

15:                                               ; preds = %14, %3
  %16 = getelementptr inbounds %"struct.faiss::BufferList", ptr %8, i32 0, i32 1
  %17 = call noundef nonnull align 8 dereferenceable(16) ptr @_ZNSt6vectorIN5faiss10BufferList6BufferESaIS2_EE4backEv(ptr noundef nonnull align 8 dereferenceable(24) %16) #11
  store ptr %17, ptr %7, align 8
  %18 = load i64, ptr %5, align 8
  %19 = load ptr, ptr %7, align 8
  %20 = getelementptr inbounds %"struct.faiss::BufferList::Buffer", ptr %19, i32 0, i32 0
  %21 = load ptr, ptr %20, align 8
  %22 = getelementptr inbounds %"struct.faiss::BufferList", ptr %8, i32 0, i32 2
  %23 = load i64, ptr %22, align 8
  %24 = getelementptr inbounds i64, ptr %21, i64 %23
  store i64 %18, ptr %24, align 8
  %25 = load float, ptr %6, align 4
  %26 = load ptr, ptr %7, align 8
  %27 = getelementptr inbounds %"struct.faiss::BufferList::Buffer", ptr %26, i32 0, i32 1
  %28 = load ptr, ptr %27, align 8
  %29 = getelementptr inbounds %"struct.faiss::BufferList", ptr %8, i32 0, i32 2
  %30 = load i64, ptr %29, align 8
  %31 = getelementptr inbounds float, ptr %28, i64 %30
  store float %25, ptr %31, align 4
  %32 = getelementptr inbounds %"struct.faiss::BufferList", ptr %8, i32 0, i32 2
  %33 = load i64, ptr %32, align 8
  %34 = add i64 %33, 1
  store i64 %34, ptr %32, align 8
  ret void
}