; Function Attrs: mustprogress uwtable
define void @_ZN5faiss10BufferList3addElf(ptr nocapture noundef nonnull align 8 dereferenceable(40) %0, i64 noundef %1, float noundef %2) local_unnamed_addr #0 align 2 {
  %4 = getelementptr inbounds i8, ptr %0, i64 32
  %5 = load i64, ptr %4, align 8
  %6 = load i64, ptr %0, align 8
  %7 = icmp eq i64 %5, %6
  br i1 %7, label %8, label %9

8:                                                ; preds = %3
  tail call void @_ZN5faiss10BufferList13append_bufferEv(ptr noundef nonnull align 8 dereferenceable(40) %0)
  %.pre = load i64, ptr %4, align 8
  br label %9

9:                                                ; preds = %8, %3
  %10 = phi i64 [ %.pre, %8 ], [ %5, %3 ]
  %11 = getelementptr inbounds i8, ptr %0, i64 16
  %12 = load ptr, ptr %11, align 8
  %13 = getelementptr inbounds i8, ptr %12, i64 -16
  %14 = load ptr, ptr %13, align 8
  %15 = getelementptr inbounds i64, ptr %14, i64 %10
  store i64 %1, ptr %15, align 8
  %16 = getelementptr inbounds i8, ptr %12, i64 -8
  %17 = load ptr, ptr %16, align 8
  %18 = load i64, ptr %4, align 8
  %19 = getelementptr inbounds float, ptr %17, i64 %18
  store float %2, ptr %19, align 4
  %20 = load i64, ptr %4, align 8
  %21 = add i64 %20, 1
  store i64 %21, ptr %4, align 8
  ret void
}